target datalayout = "e-m:e-p270:32:32-p271:32:32-p272:64:64-i64:64-i128:128-f80:128-n8:16:32:64-S128"
target triple = "x86_64-pc-linux-gnu"

%struct.archive_write = type { %struct.archive, i32, i64, i64, ptr, i64, ptr, ptr, ptr, ptr, ptr, i32, i32, ptr, ptr, ptr, ptr, ptr, ptr, ptr, ptr, ptr, ptr, ptr, ptr, ptr, ptr }
%struct.archive = type { i32, i32, ptr, i32, ptr, i32, i32, ptr, %struct.archive_string, ptr, i32, i32, ptr, ptr, i64, i64, i64, i8, i64 }
%struct.archive_string = type { ptr, i64, i64 }
%struct.archive_write_filter = type { i64, ptr, ptr, ptr, ptr, ptr, ptr, ptr, ptr, ptr, ptr, i32, i32, i32, i32 }

; Function Attrs: nounwind uwtable
define dso_local i32 @__archive_write_filter(ptr noundef %0, ptr noundef %1, i64 noundef %2) #0 {
  %4 = alloca i32, align 4
  %5 = alloca ptr, align 8
  %6 = alloca ptr, align 8
  %7 = alloca i64, align 8
  %8 = alloca i32, align 4
  %9 = alloca i32, align 4
  store ptr %0, ptr %5, align 8, !tbaa !33
  store ptr %1, ptr %6, align 8, !tbaa !40
  store i64 %2, ptr %7, align 8, !tbaa !29
  call void @llvm.lifetime.start.p0(i64 4, ptr %8) #9
  %10 = load ptr, ptr %5, align 8, !tbaa !33
  %11 = getelementptr inbounds nuw %struct.archive_write_filter, ptr %10, i32 0, i32 14
  %12 = load i32, ptr %11, align 4, !tbaa !36
  %13 = icmp ne i32 %12, 2
  br i1 %13, label %14, label %15

14:                                               ; preds = %3
  store i32 -30, ptr %4, align 4
  store i32 1, ptr %9, align 4
  br label %39

15:                                               ; preds = %3
  %16 = load i64, ptr %7, align 8, !tbaa !29
  %17 = icmp eq i64 %16, 0
  br i1 %17, label %18, label %19

18:                                               ; preds = %15
  store i32 0, ptr %4, align 4
  store i32 1, ptr %9, align 4
  br label %39

19:                                               ; preds = %15
  %20 = load ptr, ptr %5, align 8, !tbaa !33
  %21 = getelementptr inbounds nuw %struct.archive_write_filter, ptr %20, i32 0, i32 5
  %22 = load ptr, ptr %21, align 8, !tbaa !41
  %23 = icmp eq ptr %22, null
  br i1 %23, label %24, label %25

24:                                               ; preds = %19
  store i32 -30, ptr %4, align 4
  store i32 1, ptr %9, align 4
  br label %39

25:                                               ; preds = %19
  %26 = load ptr, ptr %5, align 8, !tbaa !33
  %27 = getelementptr inbounds nuw %struct.archive_write_filter, ptr %26, i32 0, i32 5
  %28 = load ptr, ptr %27, align 8, !tbaa !41
  %29 = load ptr, ptr %5, align 8, !tbaa !33
  %30 = load ptr, ptr %6, align 8, !tbaa !40
  %31 = load i64, ptr %7, align 8, !tbaa !29
  %32 = call i32 %28(ptr noundef %29, ptr noundef %30, i64 noundef %31)
  store i32 %32, ptr %8, align 4, !tbaa !28
  %33 = load i64, ptr %7, align 8, !tbaa !29
  %34 = load ptr, ptr %5, align 8, !tbaa !33
  %35 = getelementptr inbounds nuw %struct.archive_write_filter, ptr %34, i32 0, i32 0
  %36 = load i64, ptr %35, align 8, !tbaa !42
  %37 = add i64 %36, %33
  store i64 %37, ptr %35, align 8, !tbaa !42
  %38 = load i32, ptr %8, align 4, !tbaa !28
  store i32 %38, ptr %4, align 4
  store i32 1, ptr %9, align 4
  br label %39

39:                                               ; preds = %25, %24, %18, %14
  call void @llvm.lifetime.end.p0(i64 4, ptr %8) #9
  %40 = load i32, ptr %4, align 4
  ret i32 %40
}

; Function Attrs: nounwind uwtable
define dso_local i32 @__archive_write_output(ptr noundef %0, ptr noundef %1, i64 noundef %2) #0 {
  %4 = alloca ptr, align 8
  %5 = alloca ptr, align 8
  %6 = alloca i64, align 8
  store ptr %0, ptr %4, align 8, !tbaa !4
  store ptr %1, ptr %5, align 8, !tbaa !40
  store i64 %2, ptr %6, align 8, !tbaa !29
  %7 = load ptr, ptr %4, align 8, !tbaa !4
  %8 = getelementptr inbounds nuw %struct.archive_write, ptr %7, i32 0, i32 13
  %9 = load ptr, ptr %8, align 8, !tbaa !37
  %10 = load ptr, ptr %5, align 8, !tbaa !40
  %11 = load i64, ptr %6, align 8, !tbaa !29
  %12 = call i32 @__archive_write_filter(ptr noundef %9, ptr noundef %10, i64 noundef %11)
  ret i32 %12
}

; Function Attrs: nounwind uwtable
define dso_local i32 @__archive_write_nulls(ptr noundef %0, i64 noundef %1) #0 {
  %3 = alloca i32, align 4
  %4 = alloca ptr, align 8
  %5 = alloca i64, align 8
  %6 = alloca i64, align 8
  %7 = alloca i32, align 4
  %8 = alloca i32, align 4
  store ptr %0, ptr %4, align 8, !tbaa !4
  store i64 %1, ptr %5, align 8, !tbaa !29
  %9 = load i64, ptr %5, align 8, !tbaa !29
  %10 = icmp eq i64 %9, 0
  br i1 %10, label %11, label %12

11:                                               ; preds = %2
  store i32 0, ptr %3, align 4
  br label %48

12:                                               ; preds = %2
  br label %13

13:                                               ; preds = %46, %12
  %14 = load i64, ptr %5, align 8, !tbaa !29
  %15 = icmp ugt i64 %14, 0
  br i1 %15, label %16, label %47

16:                                               ; preds = %13
  call void @llvm.lifetime.start.p0(i64 8, ptr %6) #9
  %17 = load i64, ptr %5, align 8, !tbaa !29
  %18 = load ptr, ptr %4, align 8, !tbaa !4
  %19 = getelementptr inbounds nuw %struct.archive_write, ptr %18, i32 0, i32 5
  %20 = load i64, ptr %19, align 8, !tbaa !23
  %21 = icmp ult i64 %17, %20
  br i1 %21, label %22, label %24

22:                                               ; preds = %16
  %23 = load i64, ptr %5, align 8, !tbaa !29
  br label %28

24:                                               ; preds = %16
  %25 = load ptr, ptr %4, align 8, !tbaa !4
  %26 = getelementptr inbounds nuw %struct.archive_write, ptr %25, i32 0, i32 5
  %27 = load i64, ptr %26, align 8, !tbaa !23
  br label %28

28:                                               ; preds = %24, %22
  %29 = phi i64 [ %23, %22 ], [ %27, %24 ]
  store i64 %29, ptr %6, align 8, !tbaa !29
  call void @llvm.lifetime.start.p0(i64 4, ptr %7) #9
  %30 = load ptr, ptr %4, align 8, !tbaa !4
  %31 = load ptr, ptr %4, align 8, !tbaa !4
  %32 = getelementptr inbounds nuw %struct.archive_write, ptr %31, i32 0, i32 4
  %33 = load ptr, ptr %32, align 8, !tbaa !25
  %34 = load i64, ptr %6, align 8, !tbaa !29
  %35 = call i32 @__archive_write_output(ptr noundef %30, ptr noundef %33, i64 noundef %34)
  store i32 %35, ptr %7, align 4, !tbaa !28
  %36 = load i32, ptr %7, align 4, !tbaa !28
  %37 = icmp slt i32 %36, 0
  br i1 %37, label %38, label %40

38:                                               ; preds = %28
  %39 = load i32, ptr %7, align 4, !tbaa !28
  store i32 %39, ptr %3, align 4
  store i32 1, ptr %8, align 4
  br label %44

40:                                               ; preds = %28
  %41 = load i64, ptr %6, align 8, !tbaa !29
  %42 = load i64, ptr %5, align 8, !tbaa !29
  %43 = sub i64 %42, %41
  store i64 %43, ptr %5, align 8, !tbaa !29
  store i32 0, ptr %8, align 4
  br label %44

44:                                               ; preds = %40, %38
  call void @llvm.lifetime.end.p0(i64 4, ptr %7) #9
  call void @llvm.lifetime.end.p0(i64 8, ptr %6) #9
  %45 = load i32, ptr %8, align 4
  switch i32 %45, label %50 [
    i32 0, label %46
    i32 1, label %48
  ]

46:                                               ; preds = %44
  br label %13, !llvm.loop !43

47:                                               ; preds = %13
  store i32 0, ptr %3, align 4
  br label %48

48:                                               ; preds = %47, %44, %11
  %49 = load i32, ptr %3, align 4
  ret i32 %49

50:                                               ; preds = %44
  unreachable
}