; Function Attrs: nounwind uwtable
define dso_local range(i32 -2147483648, 1) i32 @__archive_write_nulls(ptr noundef readonly captures(none) %0, i64 noundef %1) local_unnamed_addr #3 {
  %3 = icmp eq i64 %1, 0
  br i1 %3, label %__archive_write_output.exit.thread, label %.preheader

.preheader:                                       ; preds = %2
  %4 = getelementptr inbounds nuw i8, ptr %0, i64 176
  %5 = getelementptr inbounds nuw i8, ptr %0, i64 168
  %6 = getelementptr inbounds nuw i8, ptr %0, i64 232
  br label %7

7:                                                ; preds = %.preheader, %__archive_write_output.exit
  %.015 = phi i64 [ %25, %__archive_write_output.exit ], [ %1, %.preheader ]
  %.not = icmp eq i64 %.015, 0
  br i1 %.not, label %__archive_write_output.exit.thread, label %8

8:                                                ; preds = %7
  %9 = load i64, ptr %4, align 8, !tbaa !21
  %.015. = tail call i64 @llvm.umin.i64(i64 %.015, i64 %9)
  %10 = load ptr, ptr %5, align 8, !tbaa !22
  %11 = load ptr, ptr %6, align 8, !tbaa !30
  %12 = getelementptr inbounds nuw i8, ptr %11, i64 100
  %13 = load i32, ptr %12, align 4, !tbaa !29
  %.not.i.i = icmp eq i32 %13, 2
  br i1 %.not.i.i, label %14, label %__archive_write_output.exit.thread

14:                                               ; preds = %8
  %15 = icmp eq i64 %9, 0
  br i1 %15, label %__archive_write_output.exit, label %16

16:                                               ; preds = %14
  %17 = getelementptr inbounds nuw i8, ptr %11, i64 40
  %18 = load ptr, ptr %17, align 8, !tbaa !33
  %19 = icmp eq ptr %18, null
  br i1 %19, label %__archive_write_output.exit.thread, label %20

20:                                               ; preds = %16
  %21 = tail call i32 %18(ptr noundef nonnull %11, ptr noundef %10, i64 noundef %.015.) #13
  %22 = load i64, ptr %11, align 8, !tbaa !34
  %23 = add i64 %22, %.015.
  store i64 %23, ptr %11, align 8, !tbaa !34
  br label %__archive_write_output.exit

__archive_write_output.exit:                      ; preds = %14, %20
  %.0.i.i = phi i32 [ %21, %20 ], [ 0, %14 ]
  %24 = icmp sgt i32 %.0.i.i, -1
  %25 = sub i64 %.015, %.015.
  br i1 %24, label %7, label %__archive_write_output.exit.thread

__archive_write_output.exit.thread:               ; preds = %16, %8, %__archive_write_output.exit, %7, %2
  %.014 = phi i32 [ 0, %2 ], [ -30, %16 ], [ -30, %8 ], [ 0, %7 ], [ %.0.i.i, %__archive_write_output.exit ]
  ret i32 %.014
}